target datalayout = "e-m:e-p270:32:32-p271:32:32-p272:64:64-i64:64-i128:128-f80:128-n8:16:32:64-S128"
target triple = "x86_64-pc-linux-gnu"

@UseCompressedOops = external global i8, align 1
@_ZN8Universe14_collectedHeapE = external global ptr, align 8

; Function Attrs: mustprogress nounwind uwtable
define linkonce_odr hidden noundef ptr @_ZN8Universe4heapEv() #1 comdat align 2 {
  %1 = load ptr, ptr @_ZN8Universe14_collectedHeapE, align 8
  ret ptr %1
}

; Function Attrs: mustprogress nounwind uwtable
define hidden noundef zeroext i1 @_ZN17ArchiveHeapLoader8can_loadEv() #1 align 2 {
  %1 = alloca i1, align 1
  %2 = load i8, ptr @UseCompressedOops, align 1
  %3 = trunc i8 %2 to i1
  br i1 %3, label %5, label %4

4:                                                ; preds = %0
  store i1 false, ptr %1, align 1
  br label %11

5:                                                ; preds = %0
  %6 = call noundef ptr @_ZN8Universe4heapEv()
  %7 = load ptr, ptr %6, align 8
  %8 = getelementptr inbounds ptr, ptr %7, i64 54
  %9 = load ptr, ptr %8, align 8
  %10 = call noundef zeroext i1 %9(ptr noundef nonnull align 8 dereferenceable(104) %6)
  store i1 %10, ptr %1, align 1
  br label %11

11:                                               ; preds = %5, %4
  %12 = load i1, ptr %1, align 1
  ret i1 %12
}