; Function Attrs: mustprogress nounwind uwtable
define hidden noundef zeroext i1 @_ZN17ArchiveHeapLoader8can_loadEv() local_unnamed_addr #2 align 2 {
  %1 = load i8, ptr @UseCompressedOops, align 1
  %2 = trunc i8 %1 to i1
  br i1 %2, label %3, label %9

3:                                                ; preds = %0
  %4 = load ptr, ptr @_ZN8Universe14_collectedHeapE, align 8
  %5 = load ptr, ptr %4, align 8
  %6 = getelementptr inbounds i8, ptr %5, i64 432
  %7 = load ptr, ptr %6, align 8
  %8 = tail call noundef zeroext i1 %7(ptr noundef nonnull align 8 dereferenceable(104) %4) #12
  br label %9

9:                                                ; preds = %0, %3
  %.0 = phi i1 [ %8, %3 ], [ false, %0 ]
  ret i1 %.0
}